target datalayout = "e-m:e-p270:32:32-p271:32:32-p272:64:64-i64:64-i128:128-f80:128-n8:16:32:64-S128"
target triple = "x86_64-pc-linux-gnu"

%struct.mbim_uuid_info_ = type { ptr, ptr, ptr }
%struct.mbim_uuid_ext = type { [4 x i32], ptr, ptr, ptr, ptr }
%struct.nstime_t = type { i64, i32 }
%struct._packet_info = type { ptr, ptr, i32, i32, %struct.nstime_t, %struct.nstime_t, %struct.nstime_t, i32, ptr, ptr, ptr, ptr, %struct._address, %struct._address, %struct._address, %struct._address, %struct._address, %struct._address, i32, ptr, i32, %struct.anon.0, i32, i32, i32, i32, ptr, i32, ptr, ptr, i16, i16, i32, i32, i16, i32, i32, ptr, ptr, ptr, i8, i8, i16, i16, i16, i32, i16, i16, ptr, ptr, ptr, ptr, ptr, i32 }
%struct._address = type { i32, i32, ptr, ptr }
%struct.anon.0 = type { i8, [3 x i8] }

@hf_mbim_cid = internal global i32 0, align 4
@.str.1966 = private unnamed_addr constant [8 x i8] c"Unknown\00", align 1
@.str.2530 = private unnamed_addr constant [5 x i8] c": %s\00", align 1
@.str.2531 = private unnamed_addr constant [8 x i8] c"%s (%u)\00", align 1
@.str.2532 = private unnamed_addr constant [10 x i8] c": Unknown\00", align 1

; Function Attrs: nounwind uwtable
define internal i32 @mbim_dissect_cid(ptr noundef %0, ptr noundef %1, ptr noundef %2, ptr noundef %3, i8 noundef zeroext %4, ptr noundef %5) #0 {
  %7 = alloca ptr, align 8
  %8 = alloca ptr, align 8
  %9 = alloca ptr, align 8
  %10 = alloca ptr, align 8
  %11 = alloca i8, align 1
  %12 = alloca ptr, align 8
  %13 = alloca i32, align 4
  %14 = alloca ptr, align 8
  store ptr %0, ptr %7, align 8
  store ptr %1, ptr %8, align 8
  store ptr %2, ptr %9, align 8
  store ptr %3, ptr %10, align 8
  store i8 %4, ptr %11, align 1
  store ptr %5, ptr %12, align 8
  %15 = load ptr, ptr %7, align 8
  %16 = load ptr, ptr %10, align 8
  %17 = load i32, ptr %16, align 4
  %18 = call i32 @tvb_get_letohl(ptr noundef %15, i32 noundef %17)
  store i32 %18, ptr %13, align 4
  %19 = load i8, ptr %11, align 1
  %20 = zext i8 %19 to i32
  %21 = icmp slt i32 %20, 25
  br i1 %21, label %22, label %64

22:                                               ; preds = %6
  %23 = load ptr, ptr %9, align 8
  %24 = load i8, ptr %11, align 1
  %25 = zext i8 %24 to i64
  %26 = getelementptr [25 x %struct.mbim_uuid_info_], ptr @mbim_uuid_info, i64 0, i64 %25
  %27 = getelementptr inbounds %struct.mbim_uuid_info_, ptr %26, i32 0, i32 0
  %28 = load ptr, ptr %27, align 8
  %29 = load i32, ptr %28, align 4
  %30 = load ptr, ptr %7, align 8
  %31 = load ptr, ptr %10, align 8
  %32 = load i32, ptr %31, align 4
  %33 = load i32, ptr %13, align 4
  %34 = call ptr @proto_tree_add_uint(ptr noundef %23, i32 noundef %29, ptr noundef %30, i32 noundef %32, i32 noundef 4, i32 noundef %33)
  %35 = load i8, ptr %11, align 1
  %36 = zext i8 %35 to i64
  %37 = getelementptr [25 x %struct.mbim_uuid_info_], ptr @mbim_uuid_info, i64 0, i64 %36
  %38 = getelementptr inbounds %struct.mbim_uuid_info_, ptr %37, i32 0, i32 2
  %39 = load ptr, ptr %38, align 8
  %40 = icmp ne ptr %39, null
  br i1 %40, label %41, label %52

41:                                               ; preds = %22
  %42 = load ptr, ptr %8, align 8
  %43 = getelementptr inbounds %struct._packet_info, ptr %42, i32 0, i32 1
  %44 = load ptr, ptr %43, align 8
  %45 = load i32, ptr %13, align 4
  %46 = load i8, ptr %11, align 1
  %47 = zext i8 %46 to i64
  %48 = getelementptr [25 x %struct.mbim_uuid_info_], ptr @mbim_uuid_info, i64 0, i64 %47
  %49 = getelementptr inbounds %struct.mbim_uuid_info_, ptr %48, i32 0, i32 2
  %50 = load ptr, ptr %49, align 8
  %51 = call ptr @val_to_str_ext_const(i32 noundef %45, ptr noundef %50, ptr noundef @.str.1966)
  call void (ptr, i32, ptr, ...) @col_append_fstr(ptr noundef %44, i32 noundef 25, ptr noundef @.str.2530, ptr noundef %51)
  br label %63

52:                                               ; preds = %22
  %53 = load ptr, ptr %8, align 8
  %54 = getelementptr inbounds %struct._packet_info, ptr %53, i32 0, i32 1
  %55 = load ptr, ptr %54, align 8
  %56 = load i32, ptr %13, align 4
  %57 = load i8, ptr %11, align 1
  %58 = zext i8 %57 to i64
  %59 = getelementptr [25 x %struct.mbim_uuid_info_], ptr @mbim_uuid_info, i64 0, i64 %58
  %60 = getelementptr inbounds %struct.mbim_uuid_info_, ptr %59, i32 0, i32 1
  %61 = load ptr, ptr %60, align 8
  %62 = call ptr @val_to_str_const(i32 noundef %56, ptr noundef %61, ptr noundef @.str.1966)
  call void (ptr, i32, ptr, ...) @col_append_fstr(ptr noundef %55, i32 noundef 25, ptr noundef @.str.2530, ptr noundef %62)
  br label %63

63:                                               ; preds = %52, %41
  br label %99

64:                                               ; preds = %6
  %65 = load i8, ptr %11, align 1
  %66 = zext i8 %65 to i32
  %67 = icmp eq i32 %66, 255
  br i1 %67, label %68, label %87

68:                                               ; preds = %64
  %69 = load i32, ptr %13, align 4
  %70 = load ptr, ptr %12, align 8
  %71 = getelementptr inbounds %struct.mbim_uuid_ext, ptr %70, i32 0, i32 2
  %72 = load ptr, ptr %71, align 8
  %73 = call ptr @val_to_str_const(i32 noundef %69, ptr noundef %72, ptr noundef @.str.1966)
  store ptr %73, ptr %14, align 8
  %74 = load ptr, ptr %9, align 8
  %75 = load i32, ptr @hf_mbim_cid, align 4
  %76 = load ptr, ptr %7, align 8
  %77 = load ptr, ptr %10, align 8
  %78 = load i32, ptr %77, align 4
  %79 = load i32, ptr %13, align 4
  %80 = load ptr, ptr %14, align 8
  %81 = load i32, ptr %13, align 4
  %82 = call ptr (ptr, i32, ptr, i32, i32, i32, ptr, ...) @proto_tree_add_uint_format_value(ptr noundef %74, i32 noundef %75, ptr noundef %76, i32 noundef %78, i32 noundef 4, i32 noundef %79, ptr noundef @.str.2531, ptr noundef %80, i32 noundef %81)
  %83 = load ptr, ptr %8, align 8
  %84 = getelementptr inbounds %struct._packet_info, ptr %83, i32 0, i32 1
  %85 = load ptr, ptr %84, align 8
  %86 = load ptr, ptr %14, align 8
  call void (ptr, i32, ptr, ...) @col_append_fstr(ptr noundef %85, i32 noundef 25, ptr noundef @.str.2530, ptr noundef %86)
  br label %98

87:                                               ; preds = %64
  %88 = load ptr, ptr %9, align 8
  %89 = load i32, ptr @hf_mbim_cid, align 4
  %90 = load ptr, ptr %7, align 8
  %91 = load ptr, ptr %10, align 8
  %92 = load i32, ptr %91, align 4
  %93 = load i32, ptr %13, align 4
  %94 = call ptr @proto_tree_add_uint(ptr noundef %88, i32 noundef %89, ptr noundef %90, i32 noundef %92, i32 noundef 4, i32 noundef %93)
  %95 = load ptr, ptr %8, align 8
  %96 = getelementptr inbounds %struct._packet_info, ptr %95, i32 0, i32 1
  %97 = load ptr, ptr %96, align 8
  call void @col_append_str(ptr noundef %97, i32 noundef 25, ptr noundef @.str.2532)
  br label %98

98:                                               ; preds = %87, %68
  br label %99

99:                                               ; preds = %98, %63
  %100 = load ptr, ptr %10, align 8
  %101 = load i32, ptr %100, align 4
  %102 = add i32 %101, 4
  store i32 %102, ptr %100, align 4
  %103 = load i32, ptr %13, align 4
  ret i32 %103
}