; Function Attrs: nounwind uwtable
define internal fastcc i32 @mbim_dissect_cid(ptr noundef %0, ptr noundef readonly captures(none) %1, ptr noundef %2, ptr noundef nonnull captures(none) %3, i8 noundef zeroext %4, ptr noundef readonly captures(none) %5) unnamed_addr #0 {
  %7 = load i32, ptr %3, align 4
  %8 = tail call i32 @tvb_get_letohl(ptr noundef %0, i32 noundef %7) #10
  %9 = icmp ult i8 %4, 25
  br i1 %9, label %10, label %27

10:                                               ; preds = %6
  %11 = zext nneg i8 %4 to i64
  %12 = getelementptr [25 x %struct.mbim_uuid_info_], ptr @mbim_uuid_info, i64 0, i64 %11
  %13 = load ptr, ptr %12, align 8
  %14 = load i32, ptr %13, align 4
  %15 = load i32, ptr %3, align 4
  %16 = tail call ptr @proto_tree_add_uint(ptr noundef %2, i32 noundef %14, ptr noundef %0, i32 noundef %15, i32 noundef 4, i32 noundef %8) #10
  %17 = getelementptr inbounds nuw i8, ptr %12, i64 16
  %18 = load ptr, ptr %17, align 8
  %.not = icmp eq ptr %18, null
  %19 = getelementptr inbounds nuw i8, ptr %1, i64 8
  %20 = load ptr, ptr %19, align 8
  br i1 %.not, label %23, label %21

21:                                               ; preds = %10
  %22 = tail call ptr @val_to_str_ext_const(i32 noundef %8, ptr noundef nonnull %18, ptr noundef nonnull @.str.1966) #10
  tail call void (ptr, i32, ptr, ...) @col_append_fstr(ptr noundef %20, i32 noundef 25, ptr noundef nonnull @.str.2530, ptr noundef %22) #10
  br label %44

23:                                               ; preds = %10
  %24 = getelementptr inbounds nuw i8, ptr %12, i64 8
  %25 = load ptr, ptr %24, align 8
  %26 = tail call ptr @val_to_str_const(i32 noundef %8, ptr noundef %25, ptr noundef nonnull @.str.1966) #10
  tail call void (ptr, i32, ptr, ...) @col_append_fstr(ptr noundef %20, i32 noundef 25, ptr noundef nonnull @.str.2530, ptr noundef %26) #10
  br label %44

27:                                               ; preds = %6
  %28 = icmp eq i8 %4, -1
  br i1 %28, label %29, label %38

29:                                               ; preds = %27
  %30 = getelementptr inbounds nuw i8, ptr %5, i64 24
  %31 = load ptr, ptr %30, align 8
  %32 = tail call ptr @val_to_str_const(i32 noundef %8, ptr noundef %31, ptr noundef nonnull @.str.1966) #10
  %33 = load i32, ptr @hf_mbim_cid, align 4
  %34 = load i32, ptr %3, align 4
  %35 = tail call ptr (ptr, i32, ptr, i32, i32, i32, ptr, ...) @proto_tree_add_uint_format_value(ptr noundef %2, i32 noundef %33, ptr noundef %0, i32 noundef %34, i32 noundef 4, i32 noundef %8, ptr noundef nonnull @.str.2531, ptr noundef %32, i32 noundef %8) #10
  %36 = getelementptr inbounds nuw i8, ptr %1, i64 8
  %37 = load ptr, ptr %36, align 8
  tail call void (ptr, i32, ptr, ...) @col_append_fstr(ptr noundef %37, i32 noundef 25, ptr noundef nonnull @.str.2530, ptr noundef %32) #10
  br label %44

38:                                               ; preds = %27
  %39 = load i32, ptr @hf_mbim_cid, align 4
  %40 = load i32, ptr %3, align 4
  %41 = tail call ptr @proto_tree_add_uint(ptr noundef %2, i32 noundef %39, ptr noundef %0, i32 noundef %40, i32 noundef 4, i32 noundef %8) #10
  %42 = getelementptr inbounds nuw i8, ptr %1, i64 8
  %43 = load ptr, ptr %42, align 8
  tail call void @col_append_str(ptr noundef %43, i32 noundef 25, ptr noundef nonnull @.str.2532) #10
  br label %44

44:                                               ; preds = %29, %38, %21, %23
  %45 = load i32, ptr %3, align 4
  %46 = add i32 %45, 4
  store i32 %46, ptr %3, align 4
  ret i32 %8
}